target datalayout = "e-m:e-p270:32:32-p271:32:32-p272:64:64-i64:64-i128:128-f80:128-n8:16:32:64-S128"
target triple = "x86_64-pc-linux-gnu"

%struct.onas_context = type <{ ptr, ptr, i32, i32, i32, i32, i64, i8, i8, i8, i64, i64, i32, i32, i32, i32, i64, i32 }>

@ddd_pid = dso_local global i64 0, align 8
@scan_queue_pid = dso_local global i64 0, align 8
@g_ctx = internal global ptr null, align 8
@.str.42 = private unnamed_addr constant [45 x i8] c"Clamonacc: onas_clamonacc_exit(), signal %d\0A\00", align 1
@.str.43 = private unnamed_addr constant [180 x i8] c"Clamonacc: clamonacc has experienced a fatal error, if you continue to see this error, please run clamonacc with --verbose and report the issue and crash report to the developers\0A\00", align 1
@.str.44 = private unnamed_addr constant [47 x i8] c"Clamonacc: attempting to stop ddd thread ... \0A\00", align 1
@.str.45 = private unnamed_addr constant [57 x i8] c"Clamonacc: attempting to stop event consumer thread ...\0A\00", align 1
@.str.46 = private unnamed_addr constant [20 x i8] c"Clamonacc: stopped\0A\00", align 1

; Function Attrs: nounwind uwtable
define internal void @onas_clamonacc_exit(i32 noundef %0) #0 {
  %2 = alloca i32, align 4
  store i32 %0, ptr %2, align 4, !tbaa !4
  %3 = load i32, ptr %2, align 4, !tbaa !4
  call void (i32, ptr, ...) @mprintf(i32 noundef 2, ptr noundef @.str.42, i32 noundef %3)
  %4 = load i32, ptr %2, align 4, !tbaa !4
  %5 = icmp eq i32 %4, 11
  br i1 %5, label %6, label %7

6:                                                ; preds = %1
  call void (i32, ptr, ...) @mprintf(i32 noundef 5, ptr noundef @.str.43)
  br label %7

7:                                                ; preds = %6, %1
  %8 = load ptr, ptr @g_ctx, align 8, !tbaa !11
  %9 = icmp ne ptr %8, null
  br i1 %9, label %10, label %23

10:                                               ; preds = %7
  %11 = load ptr, ptr @g_ctx, align 8, !tbaa !11
  %12 = getelementptr inbounds nuw %struct.onas_context, ptr %11, i32 0, i32 5
  %13 = load i32, ptr %12, align 1, !tbaa !30
  %14 = icmp ne i32 %13, 0
  br i1 %14, label %15, label %20

15:                                               ; preds = %10
  %16 = load ptr, ptr @g_ctx, align 8, !tbaa !11
  %17 = getelementptr inbounds nuw %struct.onas_context, ptr %16, i32 0, i32 5
  %18 = load i32, ptr %17, align 1, !tbaa !30
  %19 = call i32 @close(i32 noundef %18)
  br label %20

20:                                               ; preds = %15, %10
  %21 = load ptr, ptr @g_ctx, align 8, !tbaa !11
  %22 = getelementptr inbounds nuw %struct.onas_context, ptr %21, i32 0, i32 5
  store i32 0, ptr %22, align 1, !tbaa !30
  br label %23

23:                                               ; preds = %20, %7
  call void (i32, ptr, ...) @mprintf(i32 noundef 2, ptr noundef @.str.44)
  %24 = load i64, ptr @ddd_pid, align 8, !tbaa !35
  %25 = icmp ugt i64 %24, 0
  br i1 %25, label %26, label %31

26:                                               ; preds = %23
  %27 = load i64, ptr @ddd_pid, align 8, !tbaa !35
  %28 = call i32 @pthread_cancel(i64 noundef %27)
  %29 = load i64, ptr @ddd_pid, align 8, !tbaa !35
  %30 = call i32 @pthread_join(i64 noundef %29, ptr noundef null)
  br label %31

31:                                               ; preds = %26, %23
  store i64 0, ptr @ddd_pid, align 8, !tbaa !35
  call void (i32, ptr, ...) @mprintf(i32 noundef 2, ptr noundef @.str.45)
  %32 = load i64, ptr @scan_queue_pid, align 8, !tbaa !35
  %33 = icmp ugt i64 %32, 0
  br i1 %33, label %34, label %39

34:                                               ; preds = %31
  %35 = load i64, ptr @scan_queue_pid, align 8, !tbaa !35
  %36 = call i32 @pthread_cancel(i64 noundef %35)
  %37 = load i64, ptr @scan_queue_pid, align 8, !tbaa !35
  %38 = call i32 @pthread_join(i64 noundef %37, ptr noundef null)
  br label %39

39:                                               ; preds = %34, %31
  store i64 0, ptr @scan_queue_pid, align 8, !tbaa !35
  call void (i32, ptr, ...) @mprintf(i32 noundef 0, ptr noundef @.str.46)
  %40 = load ptr, ptr @g_ctx, align 8, !tbaa !11
  call void @onas_cleanup(ptr noundef %40)
  call void @pthread_exit(ptr noundef null) #13
  unreachable
}