; Function Attrs: noreturn nounwind uwtable
define internal void @onas_clamonacc_exit(i32 noundef %0) #6 {
  tail call void (i32, ptr, ...) @mprintf(i32 noundef 2, ptr noundef nonnull @.str.42, i32 noundef %0) #12
  %2 = icmp eq i32 %0, 11
  br i1 %2, label %3, label %4

3:                                                ; preds = %1
  tail call void (i32, ptr, ...) @mprintf(i32 noundef 5, ptr noundef nonnull @.str.43) #12
  br label %4

4:                                                ; preds = %3, %1
  %5 = load ptr, ptr @g_ctx, align 8, !tbaa !4
  %.not = icmp eq ptr %5, null
  br i1 %.not, label %14, label %6

6:                                                ; preds = %4
  %7 = getelementptr inbounds nuw i8, ptr %5, i64 28
  %8 = load i32, ptr %7, align 1, !tbaa !25
  %.not5 = icmp eq i32 %8, 0
  br i1 %.not5, label %11, label %9

9:                                                ; preds = %6
  %10 = tail call i32 @close(i32 noundef %8) #12
  %.pre = load ptr, ptr @g_ctx, align 8, !tbaa !4
  br label %11

11:                                               ; preds = %9, %6
  %12 = phi ptr [ %.pre, %9 ], [ %5, %6 ]
  %13 = getelementptr inbounds nuw i8, ptr %12, i64 28
  store i32 0, ptr %13, align 1, !tbaa !25
  br label %14

14:                                               ; preds = %11, %4
  tail call void (i32, ptr, ...) @mprintf(i32 noundef 2, ptr noundef nonnull @.str.44) #12
  %15 = load i64, ptr @ddd_pid, align 8, !tbaa !31
  %.not6 = icmp eq i64 %15, 0
  br i1 %.not6, label %20, label %16

16:                                               ; preds = %14
  %17 = tail call i32 @pthread_cancel(i64 noundef %15) #12
  %18 = load i64, ptr @ddd_pid, align 8, !tbaa !31
  %19 = tail call i32 @pthread_join(i64 noundef %18, ptr noundef null) #12
  br label %20

20:                                               ; preds = %16, %14
  store i64 0, ptr @ddd_pid, align 8, !tbaa !31
  tail call void (i32, ptr, ...) @mprintf(i32 noundef 2, ptr noundef nonnull @.str.45) #12
  %21 = load i64, ptr @scan_queue_pid, align 8, !tbaa !31
  %.not7 = icmp eq i64 %21, 0
  br i1 %.not7, label %26, label %22

22:                                               ; preds = %20
  %23 = tail call i32 @pthread_cancel(i64 noundef %21) #12
  %24 = load i64, ptr @scan_queue_pid, align 8, !tbaa !31
  %25 = tail call i32 @pthread_join(i64 noundef %24, ptr noundef null) #12
  br label %26

26:                                               ; preds = %22, %20
  store i64 0, ptr @scan_queue_pid, align 8, !tbaa !31
  tail call void (i32, ptr, ...) @mprintf(i32 noundef 0, ptr noundef nonnull @.str.46) #12
  %27 = load ptr, ptr @g_ctx, align 8, !tbaa !4
  tail call void @onas_cleanup(ptr noundef %27)
  tail call void @pthread_exit(ptr noundef null) #14
  unreachable
}